; Function Attrs: nounwind uwtable
define dso_local range(i32 0, 2) i32 @_Py_convert_optional_to_ssize_t(ptr noundef %0, ptr noundef writeonly captures(none) %1) local_unnamed_addr #0 {
  %3 = icmp eq ptr %0, @_Py_NoneStruct
  br i1 %3, label %20, label %4

4:                                                ; preds = %2
  %5 = getelementptr i8, ptr %0, i64 8
  %.val9 = load ptr, ptr %5, align 8, !tbaa !4
  %6 = getelementptr i8, ptr %.val9, i64 96
  %.val9.val = load ptr, ptr %6, align 8, !tbaa !10
  %.not.i = icmp eq ptr %.val9.val, null
  br i1 %.not.i, label %_PyIndex_Check.exit.thread, label %_PyIndex_Check.exit

_PyIndex_Check.exit:                              ; preds = %4
  %7 = getelementptr inbounds nuw i8, ptr %.val9.val, i64 264
  %8 = load ptr, ptr %7, align 8, !tbaa !21
  %.not11 = icmp eq ptr %8, null
  br i1 %.not11, label %_PyIndex_Check.exit.thread, label %9

9:                                                ; preds = %_PyIndex_Check.exit
  %10 = load ptr, ptr @PyExc_OverflowError, align 8, !tbaa !23
  %11 = tail call i64 @PyNumber_AsSsize_t(ptr noundef %0, ptr noundef %10) #7
  %12 = icmp eq i64 %11, -1
  br i1 %12, label %13, label %19

13:                                               ; preds = %9
  %14 = tail call ptr @PyErr_Occurred() #7
  %.not8 = icmp eq ptr %14, null
  br i1 %.not8, label %19, label %20

_PyIndex_Check.exit.thread:                       ; preds = %4, %_PyIndex_Check.exit
  %15 = load ptr, ptr @PyExc_TypeError, align 8, !tbaa !23
  %16 = getelementptr inbounds nuw i8, ptr %.val9, i64 24
  %17 = load ptr, ptr %16, align 8, !tbaa !24
  %18 = tail call ptr (ptr, ptr, ...) @PyErr_Format(ptr noundef %15, ptr noundef nonnull @.str, ptr noundef %17) #7
  br label %20

19:                                               ; preds = %13, %9
  store i64 %11, ptr %1, align 8, !tbaa !25
  br label %20

20:                                               ; preds = %13, %2, %19, %_PyIndex_Check.exit.thread
  %.0 = phi i32 [ 1, %19 ], [ 0, %_PyIndex_Check.exit.thread ], [ 1, %2 ], [ 0, %13 ]
  ret i32 %.0
}